; Function Attrs: mustprogress uwtable
define noundef i64 @_ZNK6casadi8Sparsity3rowEx(ptr noundef nonnull align 8 dereferenceable(8) %0, i64 noundef %1) local_unnamed_addr #3 align 2 personality ptr @__gxx_personality_v0 {
  %3 = alloca i64, align 8
  %4 = alloca %"class.std::__cxx11::basic_string", align 8
  %5 = alloca %"class.std::__cxx11::basic_string", align 8
  %6 = alloca %"class.std::__cxx11::basic_string", align 8
  %7 = alloca %"class.std::__cxx11::basic_string", align 8
  %8 = alloca %"class.std::__cxx11::basic_string", align 8
  %9 = alloca %"class.std::__cxx11::basic_string", align 8
  %10 = alloca i64, align 8
  store i64 %1, ptr %3, align 8
  %11 = icmp slt i64 %1, 0
  br i1 %11, label %21, label %12

12:                                               ; preds = %2
  %13 = tail call noundef ptr @_ZNK6casadi12SharedObjectptEv(ptr noundef nonnull align 8 dereferenceable(8) %0)
  %14 = getelementptr inbounds i8, ptr %13, i64 24
  %15 = load ptr, ptr %14, align 8
  %16 = getelementptr inbounds i8, ptr %15, i64 16
  %17 = getelementptr inbounds i8, ptr %15, i64 8
  %18 = load i64, ptr %17, align 8
  %19 = getelementptr inbounds i64, ptr %16, i64 %18
  %20 = load i64, ptr %19, align 8
  %.not = icmp sgt i64 %20, %1
  br i1 %.not, label %59, label %21

21:                                               ; preds = %12, %2
  %22 = tail call ptr @__cxa_allocate_exception(i64 16) #24
  invoke void @_ZN6casadi3strIxEENSt7__cxx1112basic_stringIcSt11char_traitsIcESaIcEEERKT_(ptr dead_on_unwind nonnull writable sret(%"class.std::__cxx11::basic_string") align 8 %8, ptr noundef nonnull align 8 dereferenceable(8) %3)
          to label %23 unwind label %.thread

23:                                               ; preds = %21
  %24 = invoke noundef nonnull align 8 dereferenceable(32) ptr @_ZNSt7__cxx1112basic_stringIcSt11char_traitsIcESaIcEE6insertEmPKc(ptr noundef nonnull align 8 dereferenceable(32) %8, i64 noundef 0, ptr noundef nonnull @.str.18)
          to label %25 unwind label %.thread27

25:                                               ; preds = %23
  call void @_ZNSt7__cxx1112basic_stringIcSt11char_traitsIcESaIcEEC1EOS4_(ptr noundef nonnull align 8 dereferenceable(32) %7, ptr noundef nonnull align 8 dereferenceable(32) %24) #24
  %26 = invoke noundef nonnull align 8 dereferenceable(32) ptr @_ZNSt7__cxx1112basic_stringIcSt11char_traitsIcESaIcEE6appendEPKc(ptr noundef nonnull align 8 dereferenceable(32) %7, ptr noundef nonnull @.str.19)
          to label %27 unwind label %44

27:                                               ; preds = %25
  call void @_ZNSt7__cxx1112basic_stringIcSt11char_traitsIcESaIcEEC1EOS4_(ptr noundef nonnull align 8 dereferenceable(32) %6, ptr noundef nonnull align 8 dereferenceable(32) %26) #24
  %28 = invoke noundef ptr @_ZNK6casadi12SharedObjectptEv(ptr noundef nonnull align 8 dereferenceable(8) %0)
          to label %29 unwind label %46

29:                                               ; preds = %27
  %30 = getelementptr inbounds i8, ptr %28, i64 24
  %31 = load ptr, ptr %30, align 8
  %32 = getelementptr inbounds i8, ptr %31, i64 16
  %33 = getelementptr inbounds i8, ptr %31, i64 8
  %34 = load i64, ptr %33, align 8
  %35 = getelementptr inbounds i64, ptr %32, i64 %34
  %36 = load i64, ptr %35, align 8
  store i64 %36, ptr %10, align 8
  invoke void @_ZN6casadi3strIxEENSt7__cxx1112basic_stringIcSt11char_traitsIcESaIcEEERKT_(ptr dead_on_unwind nonnull writable sret(%"class.std::__cxx11::basic_string") align 8 %9, ptr noundef nonnull align 8 dereferenceable(8) %10)
          to label %37 unwind label %46

37:                                               ; preds = %29
  invoke void @_ZStplIcSt11char_traitsIcESaIcEENSt7__cxx1112basic_stringIT_T0_T1_EEOS8_S9_(ptr dead_on_unwind nonnull writable sret(%"class.std::__cxx11::basic_string") align 8 %5, ptr noundef nonnull align 8 dereferenceable(32) %6, ptr noundef nonnull align 8 dereferenceable(32) %9)
          to label %38 unwind label %48

38:                                               ; preds = %37
  %39 = invoke noundef nonnull align 8 dereferenceable(32) ptr @_ZNSt7__cxx1112basic_stringIcSt11char_traitsIcESaIcEE6appendEPKc(ptr noundef nonnull align 8 dereferenceable(32) %5, ptr noundef nonnull @.str.20)
          to label %40 unwind label %50

40:                                               ; preds = %38
  call void @_ZNSt7__cxx1112basic_stringIcSt11char_traitsIcESaIcEEC1EOS4_(ptr noundef nonnull align 8 dereferenceable(32) %4, ptr noundef nonnull align 8 dereferenceable(32) %39) #24
  invoke void @_ZNSt12out_of_rangeC1ERKNSt7__cxx1112basic_stringIcSt11char_traitsIcESaIcEEE(ptr noundef nonnull align 8 dereferenceable(16) %22, ptr noundef nonnull align 8 dereferenceable(32) %4)
          to label %41 unwind label %52

41:                                               ; preds = %40
  invoke void @__cxa_throw(ptr nonnull %22, ptr nonnull @_ZTISt12out_of_range, ptr nonnull @_ZNSt12out_of_rangeD1Ev) #25
          to label %71 unwind label %52

.thread:                                          ; preds = %21
  %42 = landingpad { ptr, i32 }
          cleanup
  br label %58

.thread27:                                        ; preds = %23
  %43 = landingpad { ptr, i32 }
          cleanup
  call void @_ZNSt7__cxx1112basic_stringIcSt11char_traitsIcESaIcEED1Ev(ptr noundef nonnull align 8 dereferenceable(32) %8) #24
  br label %58

44:                                               ; preds = %25
  %45 = landingpad { ptr, i32 }
          cleanup
  br label %57

46:                                               ; preds = %27, %29
  %47 = landingpad { ptr, i32 }
          cleanup
  br label %56

48:                                               ; preds = %37
  %49 = landingpad { ptr, i32 }
          cleanup
  br label %55

50:                                               ; preds = %38
  %51 = landingpad { ptr, i32 }
          cleanup
  br label %54

52:                                               ; preds = %41, %40
  %.0 = phi i1 [ false, %41 ], [ true, %40 ]
  %53 = landingpad { ptr, i32 }
          cleanup
  call void @_ZNSt7__cxx1112basic_stringIcSt11char_traitsIcESaIcEED1Ev(ptr noundef nonnull align 8 dereferenceable(32) %4) #24
  br label %54

54:                                               ; preds = %52, %50
  %.pn = phi { ptr, i32 } [ %53, %52 ], [ %51, %50 ]
  %.1 = phi i1 [ %.0, %52 ], [ true, %50 ]
  call void @_ZNSt7__cxx1112basic_stringIcSt11char_traitsIcESaIcEED1Ev(ptr noundef nonnull align 8 dereferenceable(32) %5) #24
  br label %55

55:                                               ; preds = %54, %48
  %.pn.pn = phi { ptr, i32 } [ %.pn, %54 ], [ %49, %48 ]
  %.2 = phi i1 [ %.1, %54 ], [ true, %48 ]
  call void @_ZNSt7__cxx1112basic_stringIcSt11char_traitsIcESaIcEED1Ev(ptr noundef nonnull align 8 dereferenceable(32) %9) #24
  br label %56

56:                                               ; preds = %55, %46
  %.pn.pn.pn = phi { ptr, i32 } [ %.pn.pn, %55 ], [ %47, %46 ]
  %.3 = phi i1 [ %.2, %55 ], [ true, %46 ]
  call void @_ZNSt7__cxx1112basic_stringIcSt11char_traitsIcESaIcEED1Ev(ptr noundef nonnull align 8 dereferenceable(32) %6) #24
  br label %57

57:                                               ; preds = %44, %56
  %.pn.pn.pn.pn = phi { ptr, i32 } [ %.pn.pn.pn, %56 ], [ %45, %44 ]
  %.4 = phi i1 [ %.3, %56 ], [ true, %44 ]
  call void @_ZNSt7__cxx1112basic_stringIcSt11char_traitsIcESaIcEED1Ev(ptr noundef nonnull align 8 dereferenceable(32) %7) #24
  call void @_ZNSt7__cxx1112basic_stringIcSt11char_traitsIcESaIcEED1Ev(ptr noundef nonnull align 8 dereferenceable(32) %8) #24
  br i1 %.4, label %58, label %70

58:                                               ; preds = %.thread27, %.thread, %57
  %.pn.pn.pn.pn.pn.pn26 = phi { ptr, i32 } [ %42, %.thread ], [ %.pn.pn.pn.pn, %57 ], [ %43, %.thread27 ]
  call void @__cxa_free_exception(ptr %22) #24
  br label %70

59:                                               ; preds = %12
  %60 = tail call noundef ptr @_ZNK6casadi12SharedObjectptEv(ptr noundef nonnull align 8 dereferenceable(8) %0)
  %61 = getelementptr inbounds i8, ptr %60, i64 24
  %62 = load ptr, ptr %61, align 8
  %63 = getelementptr inbounds i8, ptr %62, i64 16
  %64 = getelementptr inbounds i8, ptr %62, i64 8
  %65 = load i64, ptr %64, align 8
  %66 = getelementptr inbounds i64, ptr %63, i64 %65
  %67 = getelementptr inbounds i8, ptr %66, i64 8
  %68 = getelementptr inbounds i64, ptr %67, i64 %1
  %69 = load i64, ptr %68, align 8
  ret i64 %69

70:                                               ; preds = %57, %58
  %.pn.pn.pn.pn.pn.pn25 = phi { ptr, i32 } [ %.pn.pn.pn.pn, %57 ], [ %.pn.pn.pn.pn.pn.pn26, %58 ]
  resume { ptr, i32 } %.pn.pn.pn.pn.pn.pn25

71:                                               ; preds = %41
  unreachable
}